target datalayout = "e-m:e-p270:32:32-p271:32:32-p272:64:64-i64:64-i128:128-f80:128-n8:16:32:64-S128"
target triple = "x86_64-pc-linux-gnu"

%"struct.std::atomic" = type { %"struct.std::__atomic_base" }
%"struct.std::__atomic_base" = type { i64 }
%union.mi_page_flags_s = type { i8 }
%struct.mi_page_s = type { i32, i32, i8, i16, i16, %union.mi_page_flags_s, i8, ptr, ptr, i16, i8, i8, i64, ptr, %"struct.std::atomic", %"struct.std::atomic", ptr, ptr, [1 x ptr] }
%struct.mi_heap_area_s = type { ptr, i64, i64, i64, i64, i64, i32 }

; Function Attrs: inlinehint mustprogress nounwind uwtable
define internal noundef ptr @_ZL13mi_page_startPK9mi_page_s(ptr noundef %0) #3 {
  %2 = alloca ptr, align 8
  store ptr %0, ptr %2, align 8, !tbaa !3
  %3 = load ptr, ptr %2, align 8, !tbaa !3
  %4 = getelementptr inbounds nuw %struct.mi_page_s, ptr %3, i32 0, i32 13
  %5 = load ptr, ptr %4, align 8, !tbaa !9
  ret ptr %5
}

; Function Attrs: inlinehint mustprogress nounwind uwtable
define internal noundef i64 @_ZL25mi_page_usable_block_sizePK9mi_page_s(ptr noundef %0) #3 {
  %2 = alloca ptr, align 8
  store ptr %0, ptr %2, align 8, !tbaa !3
  %3 = load ptr, ptr %2, align 8, !tbaa !3
  %4 = call noundef i64 @_ZL18mi_page_block_sizePK9mi_page_s(ptr noundef %3)
  %5 = sub i64 %4, 0
  ret i64 %5
}

; Function Attrs: inlinehint mustprogress nounwind uwtable
define internal noundef i64 @_ZL18mi_page_block_sizePK9mi_page_s(ptr noundef %0) #3 {
  %2 = alloca ptr, align 8
  store ptr %0, ptr %2, align 8, !tbaa !3
  %3 = load ptr, ptr %2, align 8, !tbaa !3
  %4 = getelementptr inbounds nuw %struct.mi_page_s, ptr %3, i32 0, i32 12
  %5 = load i64, ptr %4, align 8, !tbaa !20
  ret i64 %5
}

; Function Attrs: mustprogress uwtable
define hidden void @_Z18_mi_heap_area_initP14mi_heap_area_sP9mi_page_s(ptr noundef %0, ptr noundef %1) #0 {
  %3 = alloca ptr, align 8
  %4 = alloca ptr, align 8
  %5 = alloca i64, align 8
  %6 = alloca i64, align 8
  store ptr %0, ptr %3, align 8, !tbaa !212
  store ptr %1, ptr %4, align 8, !tbaa !3
  call void @llvm.lifetime.start.p0(i64 8, ptr %5) #19
  %7 = load ptr, ptr %4, align 8, !tbaa !3
  %8 = call noundef i64 @_ZL18mi_page_block_sizePK9mi_page_s(ptr noundef %7)
  store i64 %8, ptr %5, align 8, !tbaa !18
  call void @llvm.lifetime.start.p0(i64 8, ptr %6) #19
  %9 = load ptr, ptr %4, align 8, !tbaa !3
  %10 = call noundef i64 @_ZL25mi_page_usable_block_sizePK9mi_page_s(ptr noundef %9)
  store i64 %10, ptr %6, align 8, !tbaa !18
  %11 = load ptr, ptr %4, align 8, !tbaa !3
  %12 = getelementptr inbounds nuw %struct.mi_page_s, ptr %11, i32 0, i32 4
  %13 = load i16, ptr %12, align 4, !tbaa !214
  %14 = zext i16 %13 to i64
  %15 = load i64, ptr %5, align 8, !tbaa !18
  %16 = mul i64 %14, %15
  %17 = load ptr, ptr %3, align 8, !tbaa !212
  %18 = getelementptr inbounds nuw %struct.mi_heap_area_s, ptr %17, i32 0, i32 1
  store i64 %16, ptr %18, align 8, !tbaa !215
  %19 = load ptr, ptr %4, align 8, !tbaa !3
  %20 = getelementptr inbounds nuw %struct.mi_page_s, ptr %19, i32 0, i32 3
  %21 = load i16, ptr %20, align 2, !tbaa !211
  %22 = zext i16 %21 to i64
  %23 = load i64, ptr %5, align 8, !tbaa !18
  %24 = mul i64 %22, %23
  %25 = load ptr, ptr %3, align 8, !tbaa !212
  %26 = getelementptr inbounds nuw %struct.mi_heap_area_s, ptr %25, i32 0, i32 2
  store i64 %24, ptr %26, align 8, !tbaa !217
  %27 = load ptr, ptr %4, align 8, !tbaa !3
  %28 = call noundef ptr @_ZL13mi_page_startPK9mi_page_s(ptr noundef %27)
  %29 = load ptr, ptr %3, align 8, !tbaa !212
  %30 = getelementptr inbounds nuw %struct.mi_heap_area_s, ptr %29, i32 0, i32 0
  store ptr %28, ptr %30, align 8, !tbaa !218
  %31 = load ptr, ptr %4, align 8, !tbaa !3
  %32 = getelementptr inbounds nuw %struct.mi_page_s, ptr %31, i32 0, i32 9
  %33 = load i16, ptr %32, align 8, !tbaa !35
  %34 = zext i16 %33 to i64
  %35 = load ptr, ptr %3, align 8, !tbaa !212
  %36 = getelementptr inbounds nuw %struct.mi_heap_area_s, ptr %35, i32 0, i32 3
  store i64 %34, ptr %36, align 8, !tbaa !219
  %37 = load i64, ptr %6, align 8, !tbaa !18
  %38 = load ptr, ptr %3, align 8, !tbaa !212
  %39 = getelementptr inbounds nuw %struct.mi_heap_area_s, ptr %38, i32 0, i32 4
  store i64 %37, ptr %39, align 8, !tbaa !220
  %40 = load i64, ptr %5, align 8, !tbaa !18
  %41 = load ptr, ptr %3, align 8, !tbaa !212
  %42 = getelementptr inbounds nuw %struct.mi_heap_area_s, ptr %41, i32 0, i32 5
  store i64 %40, ptr %42, align 8, !tbaa !221
  %43 = load ptr, ptr %4, align 8, !tbaa !3
  %44 = getelementptr inbounds nuw %struct.mi_page_s, ptr %43, i32 0, i32 11
  %45 = load i8, ptr %44, align 1, !tbaa !118
  %46 = zext i8 %45 to i32
  %47 = load ptr, ptr %3, align 8, !tbaa !212
  %48 = getelementptr inbounds nuw %struct.mi_heap_area_s, ptr %47, i32 0, i32 6
  store i32 %46, ptr %48, align 8, !tbaa !222
  call void @llvm.lifetime.end.p0(i64 8, ptr %6) #19
  call void @llvm.lifetime.end.p0(i64 8, ptr %5) #19
  ret void
}