; Function Attrs: mustprogress nofree norecurse nosync nounwind willreturn memory(argmem: readwrite) uwtable
define hidden void @_Z18_mi_heap_area_initP14mi_heap_area_sP9mi_page_s(ptr noundef writeonly captures(none) initializes((0, 52)) %0, ptr noundef readonly captures(none) %1) local_unnamed_addr #19 {
  %3 = getelementptr i8, ptr %1, i64 40
  %.val = load i64, ptr %3, align 8, !tbaa !18
  %4 = getelementptr inbounds nuw i8, ptr %1, i64 12
  %5 = load i16, ptr %4, align 4, !tbaa !117
  %6 = zext i16 %5 to i64
  %7 = mul i64 %.val, %6
  %8 = getelementptr inbounds nuw i8, ptr %0, i64 8
  store i64 %7, ptr %8, align 8, !tbaa !118
  %9 = getelementptr inbounds nuw i8, ptr %1, i64 10
  %10 = load i16, ptr %9, align 2, !tbaa !29
  %11 = zext i16 %10 to i64
  %12 = mul i64 %.val, %11
  %13 = getelementptr inbounds nuw i8, ptr %0, i64 16
  store i64 %12, ptr %13, align 8, !tbaa !120
  %14 = getelementptr i8, ptr %1, i64 48
  %.val18 = load ptr, ptr %14, align 8, !tbaa !3
  store ptr %.val18, ptr %0, align 8, !tbaa !121
  %15 = getelementptr inbounds nuw i8, ptr %1, i64 32
  %16 = load i16, ptr %15, align 8, !tbaa !22
  %17 = zext i16 %16 to i64
  %18 = getelementptr inbounds nuw i8, ptr %0, i64 24
  store i64 %17, ptr %18, align 8, !tbaa !122
  %19 = getelementptr inbounds nuw i8, ptr %0, i64 32
  store i64 %.val, ptr %19, align 8, !tbaa !123
  %20 = getelementptr inbounds nuw i8, ptr %0, i64 40
  store i64 %.val, ptr %20, align 8, !tbaa !124
  %21 = getelementptr inbounds nuw i8, ptr %1, i64 35
  %22 = load i8, ptr %21, align 1, !tbaa !125
  %23 = zext i8 %22 to i32
  %24 = getelementptr inbounds nuw i8, ptr %0, i64 48
  store i32 %23, ptr %24, align 8, !tbaa !126
  ret void
}